; Function Attrs: mustprogress nounwind willreturn uwtable
define internal fastcc void @Vec_WecPushLevel(ptr noundef captures(none) %0) unnamed_addr #9 {
  %2 = getelementptr inbounds nuw i8, ptr %0, i64 4
  %3 = load i32, ptr %2, align 4
  %4 = load i32, ptr %0, align 8
  %5 = icmp eq i32 %3, %4
  br i1 %5, label %6, label %Vec_WecGrow.exit12

6:                                                ; preds = %1
  %7 = icmp slt i32 %3, 16
  br i1 %7, label %8, label %20

8:                                                ; preds = %6
  %9 = getelementptr inbounds nuw i8, ptr %0, i64 8
  %10 = load ptr, ptr %9, align 8
  %.not13.i = icmp eq ptr %10, null
  br i1 %.not13.i, label %13, label %11

11:                                               ; preds = %8
  %12 = tail call dereferenceable_or_null(256) ptr @realloc(ptr noundef nonnull %10, i64 noundef 256) #30
  %.pre.i = load i32, ptr %0, align 8
  br label %Vec_WecGrow.exit

13:                                               ; preds = %8
  %14 = tail call noalias dereferenceable_or_null(256) ptr @malloc(i64 noundef 256) #28
  br label %Vec_WecGrow.exit

Vec_WecGrow.exit:                                 ; preds = %11, %13
  %15 = phi i32 [ %.pre.i, %11 ], [ %3, %13 ]
  %16 = phi ptr [ %12, %11 ], [ %14, %13 ]
  store ptr %16, ptr %9, align 8
  %17 = sext i32 %15 to i64
  %18 = getelementptr inbounds %struct.Vec_Int_t_, ptr %16, i64 %17
  %19 = sub nsw i32 16, %15
  br label %Vec_WecGrow.exit12.sink.split

20:                                               ; preds = %6
  %21 = shl nuw nsw i32 %3, 1
  %22 = getelementptr inbounds nuw i8, ptr %0, i64 8
  %23 = load ptr, ptr %22, align 8
  %.not13.i10 = icmp eq ptr %23, null
  %24 = zext nneg i32 %21 to i64
  %25 = shl nuw nsw i64 %24, 4
  br i1 %.not13.i10, label %28, label %26

26:                                               ; preds = %20
  %27 = tail call ptr @realloc(ptr noundef nonnull %23, i64 noundef %25) #30
  %.pre.i11 = load i32, ptr %0, align 8
  br label %30

28:                                               ; preds = %20
  %29 = tail call noalias ptr @malloc(i64 noundef %25) #28
  br label %30

30:                                               ; preds = %28, %26
  %31 = phi i32 [ %.pre.i11, %26 ], [ %3, %28 ]
  %32 = phi ptr [ %27, %26 ], [ %29, %28 ]
  store ptr %32, ptr %22, align 8
  %33 = sext i32 %31 to i64
  %34 = getelementptr inbounds %struct.Vec_Int_t_, ptr %32, i64 %33
  %35 = sub nsw i32 %21, %31
  br label %Vec_WecGrow.exit12.sink.split

Vec_WecGrow.exit12.sink.split:                    ; preds = %Vec_WecGrow.exit, %30
  %.sink4 = phi i32 [ %35, %30 ], [ %19, %Vec_WecGrow.exit ]
  %.sink1 = phi ptr [ %34, %30 ], [ %18, %Vec_WecGrow.exit ]
  %.sink = phi i32 [ %21, %30 ], [ 16, %Vec_WecGrow.exit ]
  %36 = sext i32 %.sink4 to i64
  %37 = shl nsw i64 %36, 4
  tail call void @llvm.memset.p0.i64(ptr align 8 %.sink1, i8 0, i64 %37, i1 false)
  store i32 %.sink, ptr %0, align 8
  br label %Vec_WecGrow.exit12

Vec_WecGrow.exit12:                               ; preds = %Vec_WecGrow.exit12.sink.split, %1
  %38 = load i32, ptr %2, align 4
  %39 = add nsw i32 %38, 1
  store i32 %39, ptr %2, align 4
  ret void
}